; Function Attrs: mustprogress uwtable
define noundef ptr @_ZNK4base18ThreadLocalStorage4Slot3GetEv(ptr noundef nonnull readonly align 4 captures(none) dereferenceable(8) %0) local_unnamed_addr #0 align 2 personality ptr @__gxx_personality_v0 {
  %2 = load atomic volatile i32, ptr @_ZN12_GLOBAL__N_116g_native_tls_keyE monotonic, align 4
  %3 = tail call noundef ptr @_ZN4base8internal26PlatformThreadLocalStorage11GetTLSValueEj(i32 noundef %2)
  %.not.i = icmp eq ptr %3, null
  br i1 %.not.i, label %4, label %_ZNK4base18ThreadLocalStorage10StaticSlot3GetEv.exit

4:                                                ; preds = %1
  %5 = tail call fastcc noundef ptr @_ZN12_GLOBAL__N_118ConstructTlsVectorEv()
  br label %_ZNK4base18ThreadLocalStorage10StaticSlot3GetEv.exit

_ZNK4base18ThreadLocalStorage10StaticSlot3GetEv.exit: ; preds = %1, %4
  %.0.i = phi ptr [ %3, %1 ], [ %5, %4 ]
  %6 = getelementptr inbounds nuw i8, ptr %0, i64 4
  %7 = load i32, ptr %6, align 4, !tbaa !9
  %8 = sext i32 %7 to i64
  %9 = getelementptr inbounds ptr, ptr %.0.i, i64 %8
  %10 = load ptr, ptr %9, align 8, !tbaa !3
  ret ptr %10
}